target datalayout = "e-m:e-p270:32:32-p271:32:32-p272:64:64-i64:64-i128:128-f80:128-n8:16:32:64-S128"
target triple = "x86_64-pc-linux-gnu"

@hf_z3950_referenceId = internal global i32 0, align 4
@hf_z3950_general = internal global i32 0, align 4
@hf_z3950_referenceId_printable = internal global i32 0, align 4
@hf_z3950_general_printable = internal global i32 0, align 4

; Function Attrs: null_pointer_is_valid sspstrong uwtable
define internal i32 @dissect_z3950_printable_OCTET_STRING(i1 noundef zeroext %0, ptr noundef %1, i32 noundef %2, ptr noundef %3, ptr noundef %4, i32 noundef %5) #0 {
  %7 = alloca i8, align 1
  %8 = alloca ptr, align 8
  %9 = alloca i32, align 4
  %10 = alloca ptr, align 8
  %11 = alloca ptr, align 8
  %12 = alloca i32, align 4
  %13 = alloca ptr, align 8
  %14 = alloca i32, align 4
  %15 = alloca i32, align 4
  %16 = zext i1 %0 to i8
  store i8 %16, ptr %7, align 1
  store ptr %1, ptr %8, align 8
  store i32 %2, ptr %9, align 4
  store ptr %3, ptr %10, align 8
  store ptr %4, ptr %11, align 8
  store i32 %5, ptr %12, align 4
  call void @llvm.lifetime.start.p0(i64 8, ptr %13) #8
  store ptr null, ptr %13, align 8
  call void @llvm.lifetime.start.p0(i64 4, ptr %14) #8
  store i32 0, ptr %14, align 4
  call void @llvm.lifetime.start.p0(i64 4, ptr %15) #8
  %17 = load i32, ptr %9, align 4
  store i32 %17, ptr %15, align 4
  %18 = load i32, ptr %12, align 4
  %19 = load i32, ptr @hf_z3950_referenceId, align 4
  %20 = icmp eq i32 %18, %19
  br i1 %20, label %21, label %23

21:                                               ; preds = %6
  %22 = load i32, ptr @hf_z3950_referenceId_printable, align 4
  store i32 %22, ptr %14, align 4
  br label %30

23:                                               ; preds = %6
  %24 = load i32, ptr %12, align 4
  %25 = load i32, ptr @hf_z3950_general, align 4
  %26 = icmp eq i32 %24, %25
  br i1 %26, label %27, label %29

27:                                               ; preds = %23
  %28 = load i32, ptr @hf_z3950_general_printable, align 4
  store i32 %28, ptr %14, align 4
  br label %29

29:                                               ; preds = %27, %23
  br label %30

30:                                               ; preds = %29, %21
  %31 = load i32, ptr %14, align 4
  %32 = icmp sgt i32 %31, 0
  br i1 %32, label %33, label %65

33:                                               ; preds = %30
  %34 = load i8, ptr %7, align 1, !range !6, !noundef !7
  %35 = trunc i8 %34 to i1
  %36 = load ptr, ptr %10, align 8
  %37 = load ptr, ptr %8, align 8
  %38 = load i32, ptr %9, align 4
  %39 = load i32, ptr %12, align 4
  %40 = call i32 @dissect_ber_octet_string(i1 noundef zeroext %35, ptr noundef %36, ptr noundef null, ptr noundef %37, i32 noundef %38, i32 noundef %39, ptr noundef %13)
  store i32 %40, ptr %9, align 4
  %41 = load ptr, ptr %13, align 8
  %42 = icmp ne ptr %41, null
  br i1 %42, label %43, label %55

43:                                               ; preds = %33
  %44 = load ptr, ptr %13, align 8
  %45 = load ptr, ptr %13, align 8
  %46 = call i32 @tvb_reported_length(ptr noundef %45)
  %47 = call zeroext i1 @tvb_ascii_isprint(ptr noundef %44, i32 noundef 0, i32 noundef %46)
  br i1 %47, label %48, label %55

48:                                               ; preds = %43
  %49 = load ptr, ptr %11, align 8
  %50 = load i32, ptr %14, align 4
  %51 = load ptr, ptr %13, align 8
  %52 = load ptr, ptr %13, align 8
  %53 = call i32 @tvb_reported_length(ptr noundef %52)
  %54 = call ptr @proto_tree_add_item(ptr noundef %49, i32 noundef %50, ptr noundef %51, i32 noundef 0, i32 noundef %53, i32 noundef 0)
  br label %64

55:                                               ; preds = %43, %33
  %56 = load i8, ptr %7, align 1, !range !6, !noundef !7
  %57 = trunc i8 %56 to i1
  %58 = load ptr, ptr %10, align 8
  %59 = load ptr, ptr %11, align 8
  %60 = load ptr, ptr %8, align 8
  %61 = load i32, ptr %15, align 4
  %62 = load i32, ptr %12, align 4
  %63 = call i32 @dissect_ber_octet_string(i1 noundef zeroext %57, ptr noundef %58, ptr noundef %59, ptr noundef %60, i32 noundef %61, i32 noundef %62, ptr noundef null)
  store i32 %63, ptr %9, align 4
  br label %64

64:                                               ; preds = %55, %48
  br label %74

65:                                               ; preds = %30
  %66 = load i8, ptr %7, align 1, !range !6, !noundef !7
  %67 = trunc i8 %66 to i1
  %68 = load ptr, ptr %10, align 8
  %69 = load ptr, ptr %11, align 8
  %70 = load ptr, ptr %8, align 8
  %71 = load i32, ptr %15, align 4
  %72 = load i32, ptr %12, align 4
  %73 = call i32 @dissect_ber_octet_string(i1 noundef zeroext %67, ptr noundef %68, ptr noundef %69, ptr noundef %70, i32 noundef %71, i32 noundef %72, ptr noundef null)
  store i32 %73, ptr %9, align 4
  br label %74

74:                                               ; preds = %65, %64
  %75 = load i32, ptr %9, align 4
  call void @llvm.lifetime.end.p0(i64 4, ptr %15) #8
  call void @llvm.lifetime.end.p0(i64 4, ptr %14) #8
  call void @llvm.lifetime.end.p0(i64 8, ptr %13) #8
  ret i32 %75
}