; Function Attrs: null_pointer_is_valid sspstrong uwtable
define internal i32 @dissect_z3950_printable_OCTET_STRING(i1 noundef zeroext %0, ptr noundef %1, i32 noundef %2, ptr noundef %3, ptr noundef %4, i32 noundef %5) #0 {
  %7 = alloca ptr, align 8
  call void @llvm.lifetime.start.p0(i64 8, ptr nonnull %7) #9
  store ptr null, ptr %7, align 8
  %8 = load i32, ptr @hf_z3950_referenceId, align 4
  %9 = icmp eq i32 %5, %8
  br i1 %9, label %select.unfold, label %10

10:                                               ; preds = %6
  %11 = load i32, ptr @hf_z3950_general, align 4
  %12 = icmp eq i32 %5, %11
  br i1 %12, label %select.unfold, label %.thread

select.unfold:                                    ; preds = %6, %10
  %.023.in = phi ptr [ @hf_z3950_general_printable, %10 ], [ @hf_z3950_referenceId_printable, %6 ]
  %.023 = load i32, ptr %.023.in, align 4
  %13 = icmp sgt i32 %.023, 0
  br i1 %13, label %14, label %.thread

14:                                               ; preds = %select.unfold
  %15 = call i32 @dissect_ber_octet_string(i1 noundef zeroext %0, ptr noundef %3, ptr noundef null, ptr noundef %1, i32 noundef %2, i32 noundef %5, ptr noundef nonnull %7)
  %16 = load ptr, ptr %7, align 8
  %.not = icmp eq ptr %16, null
  br i1 %.not, label %24, label %17

17:                                               ; preds = %14
  %18 = call i32 @tvb_reported_length(ptr noundef nonnull %16)
  %19 = call zeroext i1 @tvb_ascii_isprint(ptr noundef nonnull %16, i32 noundef 0, i32 noundef %18)
  br i1 %19, label %20, label %24

20:                                               ; preds = %17
  %21 = load ptr, ptr %7, align 8
  %22 = call i32 @tvb_reported_length(ptr noundef %21)
  %23 = call ptr @proto_tree_add_item(ptr noundef %4, i32 noundef %.023, ptr noundef %21, i32 noundef 0, i32 noundef %22, i32 noundef 0)
  br label %27

24:                                               ; preds = %17, %14
  %25 = call i32 @dissect_ber_octet_string(i1 noundef zeroext %0, ptr noundef %3, ptr noundef %4, ptr noundef %1, i32 noundef %2, i32 noundef %5, ptr noundef null)
  br label %27

.thread:                                          ; preds = %10, %select.unfold
  %26 = tail call i32 @dissect_ber_octet_string(i1 noundef zeroext %0, ptr noundef %3, ptr noundef %4, ptr noundef %1, i32 noundef %2, i32 noundef %5, ptr noundef null)
  br label %27

27:                                               ; preds = %20, %24, %.thread
  %.0 = phi i32 [ %15, %20 ], [ %25, %24 ], [ %26, %.thread ]
  call void @llvm.lifetime.end.p0(i64 8, ptr nonnull %7) #9
  ret i32 %.0
}